target datalayout = "e-m:e-p270:32:32-p271:32:32-p272:64:64-i64:64-i128:128-f80:128-n8:16:32:64-S128"
target triple = "x86_64-pc-linux-gnu"

%struct.assoc_mgr_lock_t = type { i32, i32, i32, i32, i32, i32, i32 }
%struct.job_record = type { i32, ptr, ptr, ptr, ptr, i16, i32, i32, i32, ptr, i32, ptr, ptr, i16, ptr, double, i64, ptr, ptr, ptr, ptr, ptr, ptr, i32, ptr, i32, i64, i64, i32, i32, ptr, i16, i64, i64, i8, i32, ptr, ptr, ptr, ptr, ptr, ptr, ptr, ptr, i32, ptr, ptr, i32, ptr, i32, ptr, i32, ptr, i32, ptr, ptr, ptr, ptr, ptr, ptr, i32, i16, i64, ptr, ptr, ptr, ptr, %struct.acct_policy_limit_set_t, i16, ptr, ptr, ptr, ptr, ptr, i32, ptr, ptr, ptr, ptr, ptr, i32, i32, ptr, ptr, ptr, i16, ptr, ptr, i8, ptr, ptr, i64, i64, i8, i32, i32, i8, i32, ptr, i32, i64, i32, ptr, ptr, ptr, i8, i16, i64, i32, ptr, ptr, ptr, ptr, ptr, i16, i32, ptr, ptr, ptr, ptr, i32, ptr, i32, i16, i64, ptr, i32, i32, ptr, i64, ptr, ptr, i64, i32, i32, i64, i32, i32, ptr, ptr, ptr, ptr, ptr, ptr, ptr, ptr, ptr, ptr, ptr, ptr, i32, ptr, i16, i16, i16, i16, ptr, i32, i32, i8, i64 }
%struct.acct_policy_limit_set_t = type { i16, i16, ptr }
%struct.slurmdb_qos_rec_t = type { i64, ptr, i32, i32, i32, i32, i32, i32, ptr, ptr, ptr, ptr, ptr, ptr, i32, double, i32, i32, i32, i32, i32, i32, ptr, ptr, ptr, ptr, ptr, ptr, ptr, ptr, ptr, ptr, ptr, ptr, ptr, ptr, i32, i32, ptr, ptr, ptr, ptr, ptr, i16, i32, i32, ptr, ptr, double, double }
%struct.part_record = type { i32, ptr, ptr, ptr, ptr, ptr, ptr, i32, ptr, ptr, ptr, ptr, ptr, i32, i64, i32, ptr, ptr, ptr, ptr, ptr, i32, i32, ptr, i32, i32, i64, i32, i32, i16, i32, i32, i32, i32, ptr, ptr, ptr, ptr, ptr, double, i16, i16, i16, i16, ptr, ptr, i16, i16, i32, i16, i32, i32, i32, i32, i16, ptr, ptr, ptr }
%struct.slurmdb_assoc_rec = type { ptr, ptr, ptr, ptr, ptr, ptr, ptr, i32, i32, i32, i32, i32, ptr, ptr, ptr, ptr, ptr, ptr, i32, i32, i16, ptr, ptr, i32, i32, i32, ptr, ptr, ptr, ptr, ptr, ptr, ptr, ptr, i32, i32, ptr, i32, ptr, i32, ptr, i32, i32, ptr, ptr, ptr }

@accounting_enforce = external global i16, align 2
@.str.28 = private unnamed_addr constant [162 x i8] c"%s: no assoc_ptr, this usually means the association was removed right after the job (%pJ) was started, but didn't make it to the database before it was removed.\00", align 1
@__const.acct_policy_get_prio_thresh.locks = private unnamed_addr constant %struct.assoc_mgr_lock_t { i32 1, i32 0, i32 1, i32 0, i32 0, i32 0, i32 0 }, align 4
@__func__.acct_policy_get_prio_thresh = private unnamed_addr constant [28 x i8] c"acct_policy_get_prio_thresh\00", align 1

; Function Attrs: nounwind uwtable
define internal void @_get_prio_thresh(ptr noundef %0, i32 noundef %1) #0 {
  %3 = alloca ptr, align 8
  %4 = alloca i32, align 4
  store ptr %0, ptr %3, align 8
  store i32 %1, ptr %4, align 4
  %5 = load ptr, ptr %3, align 8
  %6 = load i32, ptr %5, align 4
  %7 = icmp ne i32 %6, 0
  br i1 %7, label %11, label %8

8:                                                ; preds = %2
  %9 = load i32, ptr %4, align 4
  %10 = icmp eq i32 %9, -1
  br i1 %10, label %11, label %12

11:                                               ; preds = %8, %2
  br label %15

12:                                               ; preds = %8
  %13 = load i32, ptr %4, align 4
  %14 = load ptr, ptr %3, align 8
  store i32 %13, ptr %14, align 4
  br label %15

15:                                               ; preds = %12, %11
  ret void
}

; Function Attrs: nounwind uwtable
define dso_local void @acct_policy_set_qos_order(ptr noundef %0, ptr noundef %1, ptr noundef %2) #0 {
  %4 = alloca ptr, align 8
  %5 = alloca ptr, align 8
  %6 = alloca ptr, align 8
  store ptr %0, ptr %4, align 8
  store ptr %1, ptr %5, align 8
  store ptr %2, ptr %6, align 8
  %7 = load ptr, ptr %5, align 8
  store ptr null, ptr %7, align 8
  %8 = load ptr, ptr %6, align 8
  store ptr null, ptr %8, align 8
  %9 = load ptr, ptr %4, align 8
  %10 = getelementptr inbounds nuw %struct.job_record, ptr %9, i32 0, i32 103
  %11 = load ptr, ptr %10, align 8
  %12 = icmp ne ptr %11, null
  br i1 %12, label %13, label %71

13:                                               ; preds = %3
  %14 = load ptr, ptr %4, align 8
  %15 = getelementptr inbounds nuw %struct.job_record, ptr %14, i32 0, i32 89
  %16 = load ptr, ptr %15, align 8
  %17 = icmp ne ptr %16, null
  br i1 %17, label %18, label %65

18:                                               ; preds = %13
  %19 = load ptr, ptr %4, align 8
  %20 = getelementptr inbounds nuw %struct.job_record, ptr %19, i32 0, i32 89
  %21 = load ptr, ptr %20, align 8
  %22 = getelementptr inbounds nuw %struct.part_record, ptr %21, i32 0, i32 45
  %23 = load ptr, ptr %22, align 8
  %24 = icmp ne ptr %23, null
  br i1 %24, label %25, label %65

25:                                               ; preds = %18
  %26 = load ptr, ptr %4, align 8
  %27 = getelementptr inbounds nuw %struct.job_record, ptr %26, i32 0, i32 103
  %28 = load ptr, ptr %27, align 8
  %29 = getelementptr inbounds nuw %struct.slurmdb_qos_rec_t, ptr %28, i32 0, i32 3
  %30 = load i32, ptr %29, align 4
  %31 = zext i32 %30 to i64
  %32 = and i64 %31, 128
  %33 = icmp ne i64 %32, 0
  br i1 %33, label %34, label %45

34:                                               ; preds = %25
  %35 = load ptr, ptr %4, align 8
  %36 = getelementptr inbounds nuw %struct.job_record, ptr %35, i32 0, i32 103
  %37 = load ptr, ptr %36, align 8
  %38 = load ptr, ptr %5, align 8
  store ptr %37, ptr %38, align 8
  %39 = load ptr, ptr %4, align 8
  %40 = getelementptr inbounds nuw %struct.job_record, ptr %39, i32 0, i32 89
  %41 = load ptr, ptr %40, align 8
  %42 = getelementptr inbounds nuw %struct.part_record, ptr %41, i32 0, i32 45
  %43 = load ptr, ptr %42, align 8
  %44 = load ptr, ptr %6, align 8
  store ptr %43, ptr %44, align 8
  br label %56

45:                                               ; preds = %25
  %46 = load ptr, ptr %4, align 8
  %47 = getelementptr inbounds nuw %struct.job_record, ptr %46, i32 0, i32 89
  %48 = load ptr, ptr %47, align 8
  %49 = getelementptr inbounds nuw %struct.part_record, ptr %48, i32 0, i32 45
  %50 = load ptr, ptr %49, align 8
  %51 = load ptr, ptr %5, align 8
  store ptr %50, ptr %51, align 8
  %52 = load ptr, ptr %4, align 8
  %53 = getelementptr inbounds nuw %struct.job_record, ptr %52, i32 0, i32 103
  %54 = load ptr, ptr %53, align 8
  %55 = load ptr, ptr %6, align 8
  store ptr %54, ptr %55, align 8
  br label %56

56:                                               ; preds = %45, %34
  %57 = load ptr, ptr %5, align 8
  %58 = load ptr, ptr %57, align 8
  %59 = load ptr, ptr %6, align 8
  %60 = load ptr, ptr %59, align 8
  %61 = icmp eq ptr %58, %60
  br i1 %61, label %62, label %64

62:                                               ; preds = %56
  %63 = load ptr, ptr %6, align 8
  store ptr null, ptr %63, align 8
  br label %64

64:                                               ; preds = %62, %56
  br label %70

65:                                               ; preds = %18, %13
  %66 = load ptr, ptr %4, align 8
  %67 = getelementptr inbounds nuw %struct.job_record, ptr %66, i32 0, i32 103
  %68 = load ptr, ptr %67, align 8
  %69 = load ptr, ptr %5, align 8
  store ptr %68, ptr %69, align 8
  br label %70

70:                                               ; preds = %65, %64
  br label %91

71:                                               ; preds = %3
  %72 = load ptr, ptr %4, align 8
  %73 = getelementptr inbounds nuw %struct.job_record, ptr %72, i32 0, i32 89
  %74 = load ptr, ptr %73, align 8
  %75 = icmp ne ptr %74, null
  br i1 %75, label %76, label %90

76:                                               ; preds = %71
  %77 = load ptr, ptr %4, align 8
  %78 = getelementptr inbounds nuw %struct.job_record, ptr %77, i32 0, i32 89
  %79 = load ptr, ptr %78, align 8
  %80 = getelementptr inbounds nuw %struct.part_record, ptr %79, i32 0, i32 45
  %81 = load ptr, ptr %80, align 8
  %82 = icmp ne ptr %81, null
  br i1 %82, label %83, label %90

83:                                               ; preds = %76
  %84 = load ptr, ptr %4, align 8
  %85 = getelementptr inbounds nuw %struct.job_record, ptr %84, i32 0, i32 89
  %86 = load ptr, ptr %85, align 8
  %87 = getelementptr inbounds nuw %struct.part_record, ptr %86, i32 0, i32 45
  %88 = load ptr, ptr %87, align 8
  %89 = load ptr, ptr %5, align 8
  store ptr %88, ptr %89, align 8
  br label %90

90:                                               ; preds = %83, %76, %71
  br label %91

91:                                               ; preds = %90, %70
  ret void
}

; Function Attrs: nounwind uwtable
define dso_local i32 @acct_policy_get_prio_thresh(ptr noundef %0, i1 noundef zeroext %1) #0 {
  %3 = alloca i32, align 4
  %4 = alloca ptr, align 8
  %5 = alloca i8, align 1
  %6 = alloca ptr, align 8
  %7 = alloca ptr, align 8
  %8 = alloca ptr, align 8
  %9 = alloca i32, align 4
  %10 = alloca %struct.assoc_mgr_lock_t, align 4
  %11 = alloca i32, align 4
  store ptr %0, ptr %4, align 8
  %12 = zext i1 %1 to i8
  store i8 %12, ptr %5, align 1
  call void @llvm.lifetime.start.p0(i64 8, ptr %6) #8
  call void @llvm.lifetime.start.p0(i64 8, ptr %7) #8
  call void @llvm.lifetime.start.p0(i64 8, ptr %8) #8
  call void @llvm.lifetime.start.p0(i64 4, ptr %9) #8
  store i32 0, ptr %9, align 4
  call void @llvm.lifetime.start.p0(i64 28, ptr %10) #8
  call void @llvm.memcpy.p0.p0.i64(ptr align 4 %10, ptr align 4 @__const.acct_policy_get_prio_thresh.locks, i64 28, i1 false)
  %13 = load i16, ptr @accounting_enforce, align 2
  %14 = zext i16 %13 to i64
  %15 = and i64 %14, 2
  %16 = icmp ne i64 %15, 0
  br i1 %16, label %18, label %17

17:                                               ; preds = %2
  store i32 0, ptr %3, align 4
  store i32 1, ptr %11, align 4
  br label %65

18:                                               ; preds = %2
  %19 = load i8, ptr %5, align 1, !range !8, !noundef !9
  %20 = trunc i8 %19 to i1
  br i1 %20, label %22, label %21

21:                                               ; preds = %18
  call void @assoc_mgr_lock(ptr noundef %10)
  br label %22

22:                                               ; preds = %21, %18
  %23 = load ptr, ptr %4, align 8
  %24 = getelementptr inbounds nuw %struct.job_record, ptr %23, i32 0, i32 11
  %25 = load ptr, ptr %24, align 8
  store ptr %25, ptr %8, align 8
  %26 = load ptr, ptr %8, align 8
  %27 = icmp ne ptr %26, null
  br i1 %27, label %40, label %28

28:                                               ; preds = %22
  br label %29

29:                                               ; preds = %28
  br label %30

30:                                               ; preds = %29
  %31 = call i32 @get_log_level()
  %32 = icmp sge i32 %31, 5
  br i1 %32, label %33, label %35

33:                                               ; preds = %30
  %34 = load ptr, ptr %4, align 8
  call void (i32, ptr, ...) @log_var(i32 noundef 5, ptr noundef @.str.28, ptr noundef @__func__.acct_policy_get_prio_thresh, ptr noundef %34)
  br label %35

35:                                               ; preds = %33, %30
  br label %36

36:                                               ; preds = %35
  br label %37

37:                                               ; preds = %36
  br label %38

38:                                               ; preds = %37
  br label %39

39:                                               ; preds = %38
  br label %59

40:                                               ; preds = %22
  %41 = load ptr, ptr %4, align 8
  call void @acct_policy_set_qos_order(ptr noundef %41, ptr noundef %6, ptr noundef %7)
  %42 = load ptr, ptr %6, align 8
  %43 = icmp ne ptr %42, null
  br i1 %43, label %44, label %48

44:                                               ; preds = %40
  %45 = load ptr, ptr %6, align 8
  %46 = getelementptr inbounds nuw %struct.slurmdb_qos_rec_t, ptr %45, i32 0, i32 37
  %47 = load i32, ptr %46, align 4
  call void @_get_prio_thresh(ptr noundef %9, i32 noundef %47)
  br label %48

48:                                               ; preds = %44, %40
  %49 = load ptr, ptr %7, align 8
  %50 = icmp ne ptr %49, null
  br i1 %50, label %51, label %55

51:                                               ; preds = %48
  %52 = load ptr, ptr %7, align 8
  %53 = getelementptr inbounds nuw %struct.slurmdb_qos_rec_t, ptr %52, i32 0, i32 37
  %54 = load i32, ptr %53, align 4
  call void @_get_prio_thresh(ptr noundef %9, i32 noundef %54)
  br label %55

55:                                               ; preds = %51, %48
  %56 = load ptr, ptr %8, align 8
  %57 = getelementptr inbounds nuw %struct.slurmdb_assoc_rec, ptr %56, i32 0, i32 35
  %58 = load i32, ptr %57, align 4
  call void @_get_prio_thresh(ptr noundef %9, i32 noundef %58)
  br label %59

59:                                               ; preds = %55, %39
  %60 = load i8, ptr %5, align 1, !range !8, !noundef !9
  %61 = trunc i8 %60 to i1
  br i1 %61, label %63, label %62

62:                                               ; preds = %59
  call void @assoc_mgr_unlock(ptr noundef %10)
  br label %63

63:                                               ; preds = %62, %59
  %64 = load i32, ptr %9, align 4
  store i32 %64, ptr %3, align 4
  store i32 1, ptr %11, align 4
  br label %65

65:                                               ; preds = %63, %17
  call void @llvm.lifetime.end.p0(i64 28, ptr %10) #8
  call void @llvm.lifetime.end.p0(i64 4, ptr %9) #8
  call void @llvm.lifetime.end.p0(i64 8, ptr %8) #8
  call void @llvm.lifetime.end.p0(i64 8, ptr %7) #8
  call void @llvm.lifetime.end.p0(i64 8, ptr %6) #8
  %66 = load i32, ptr %3, align 4
  ret i32 %66
}