; Function Attrs: nounwind uwtable
define dso_local range(i32 0, -1) i32 @acct_policy_get_prio_thresh(ptr noundef %0, i1 noundef zeroext %1) local_unnamed_addr #0 {
  %3 = alloca %struct.assoc_mgr_lock_t, align 4
  call void @llvm.lifetime.start.p0(i64 28, ptr nonnull %3) #15
  call void @llvm.memcpy.p0.p0.i64(ptr noundef nonnull align 4 dereferenceable(28) %3, ptr noundef nonnull align 4 dereferenceable(28) @__const.acct_policy_get_prio_thresh.locks, i64 28, i1 false)
  %4 = load i16, ptr @accounting_enforce, align 2
  %5 = and i16 %4, 2
  %.not = icmp eq i16 %5, 0
  br i1 %.not, label %50, label %6

6:                                                ; preds = %2
  br i1 %1, label %8, label %7

7:                                                ; preds = %6
  call void @assoc_mgr_lock(ptr noundef nonnull %3) #15
  br label %8

8:                                                ; preds = %7, %6
  %9 = getelementptr inbounds nuw i8, ptr %0, i64 72
  %10 = load ptr, ptr %9, align 8
  %.not10 = icmp eq ptr %10, null
  br i1 %.not10, label %11, label %15

11:                                               ; preds = %8
  %12 = call i32 @get_log_level() #15
  %13 = icmp sgt i32 %12, 4
  br i1 %13, label %14, label %_get_prio_thresh.exit16

14:                                               ; preds = %11
  call void (i32, ptr, ...) @log_var(i32 noundef 5, ptr noundef nonnull @.str.28, ptr noundef nonnull @__func__.acct_policy_get_prio_thresh, ptr noundef nonnull %0) #15
  br label %_get_prio_thresh.exit16

15:                                               ; preds = %8
  %16 = getelementptr inbounds nuw i8, ptr %0, i64 768
  %17 = load ptr, ptr %16, align 8
  %.not.i = icmp eq ptr %17, null
  %18 = getelementptr inbounds nuw i8, ptr %0, i64 672
  %19 = load ptr, ptr %18, align 8
  %.not27.i = icmp eq ptr %19, null
  br i1 %.not.i, label %29, label %20

20:                                               ; preds = %15
  br i1 %.not27.i, label %acct_policy_set_qos_order.exit.thread, label %21

21:                                               ; preds = %20
  %22 = getelementptr inbounds nuw i8, ptr %19, i64 296
  %23 = load ptr, ptr %22, align 8
  %.not30.i = icmp eq ptr %23, null
  br i1 %.not30.i, label %acct_policy_set_qos_order.exit.thread, label %24

24:                                               ; preds = %21
  %25 = getelementptr inbounds nuw i8, ptr %17, i64 20
  %26 = load i32, ptr %25, align 4
  %27 = and i32 %26, 128
  %.not31.i = icmp eq i32 %27, 0
  %spec.select = select i1 %.not31.i, ptr %23, ptr %17
  %28 = icmp eq ptr %23, %17
  br i1 %28, label %acct_policy_set_qos_order.exit.thread, label %36

29:                                               ; preds = %15
  br i1 %.not27.i, label %_get_prio_thresh.exit14, label %30

30:                                               ; preds = %29
  %31 = getelementptr inbounds nuw i8, ptr %19, i64 296
  %32 = load ptr, ptr %31, align 8
  %.not28.i = icmp eq ptr %32, null
  br i1 %.not28.i, label %_get_prio_thresh.exit14, label %acct_policy_set_qos_order.exit.thread

acct_policy_set_qos_order.exit.thread:            ; preds = %20, %21, %30, %24
  %.125.ph.ph = phi ptr [ %32, %30 ], [ %17, %21 ], [ %17, %20 ], [ %spec.select, %24 ]
  %33 = getelementptr inbounds nuw i8, ptr %.125.ph.ph, i64 244
  %34 = load i32, ptr %33, align 4
  %35 = icmp eq i32 %34, -1
  %spec.select3843 = select i1 %35, i32 0, i32 %34
  br label %_get_prio_thresh.exit14

36:                                               ; preds = %24
  %37 = select i1 %.not31.i, ptr %17, ptr %23
  %38 = getelementptr inbounds nuw i8, ptr %spec.select, i64 244
  %39 = load i32, ptr %38, align 4
  %40 = icmp eq i32 %39, -1
  %spec.select38 = select i1 %40, i32 0, i32 %39
  %41 = getelementptr inbounds nuw i8, ptr %37, i64 244
  %42 = load i32, ptr %41, align 4
  %43 = icmp ne i32 %spec.select38, 0
  %44 = icmp eq i32 %42, -1
  %or.cond.i13 = or i1 %43, %44
  %spec.select39 = select i1 %or.cond.i13, i32 %spec.select38, i32 %42
  br label %_get_prio_thresh.exit14

_get_prio_thresh.exit14:                          ; preds = %acct_policy_set_qos_order.exit.thread, %36, %30, %29
  %.2 = phi i32 [ 0, %29 ], [ 0, %30 ], [ %spec.select39, %36 ], [ %spec.select3843, %acct_policy_set_qos_order.exit.thread ]
  %45 = getelementptr inbounds nuw i8, ptr %10, i64 244
  %46 = load i32, ptr %45, align 4
  %47 = icmp ne i32 %.2, 0
  %48 = icmp eq i32 %46, -1
  %or.cond.i15 = or i1 %47, %48
  %spec.select40 = select i1 %or.cond.i15, i32 %.2, i32 %46
  br label %_get_prio_thresh.exit16

_get_prio_thresh.exit16:                          ; preds = %_get_prio_thresh.exit14, %11, %14
  %.022 = phi i32 [ 0, %14 ], [ 0, %11 ], [ %spec.select40, %_get_prio_thresh.exit14 ]
  br i1 %1, label %50, label %49

49:                                               ; preds = %_get_prio_thresh.exit16
  call void @assoc_mgr_unlock(ptr noundef nonnull %3) #15
  br label %50

50:                                               ; preds = %_get_prio_thresh.exit16, %49, %2
  %.0 = phi i32 [ 0, %2 ], [ %.022, %49 ], [ %.022, %_get_prio_thresh.exit16 ]
  call void @llvm.lifetime.end.p0(i64 28, ptr nonnull %3) #15
  ret i32 %.0
}